target datalayout = "e-m:e-p270:32:32-p271:32:32-p272:64:64-i64:64-i128:128-f80:128-n8:16:32:64-S128"
target triple = "x86_64-pc-linux-gnu"

%struct.PJconsts = type { ptr, ptr, ptr, ptr, ptr, ptr, ptr, ptr, ptr, ptr, ptr, ptr, i32, ptr, ptr, ptr, ptr, ptr, ptr, ptr, ptr, double, double, double, double, double, double, double, double, double, double, double, double, double, double, double, double, double, double, double, double, double, double, i32, i32, i32, i32, i32, i32, i32, i32, i32, i32, i32, ptr, ptr, ptr, ptr, ptr, ptr, double, double, double, double, double, double, double, double, double, double, double, i32, [7 x double], i32, ptr, ptr, double, double, i32, [4 x i8], %"class.std::shared_ptr", i8, double, i8, %"class.std::__cxx11::basic_string", %"class.std::__cxx11::basic_string", %"class.std::__cxx11::basic_string", i8, %"class.std::vector", i32, %"class.std::vector.3", i32, i8, i8, i8, ptr }
%"class.std::shared_ptr" = type { %"class.std::__shared_ptr" }
%"class.std::__shared_ptr" = type { ptr, %"class.std::__shared_count" }
%"class.std::__shared_count" = type { ptr }
%"class.std::__cxx11::basic_string" = type { %"struct.std::__cxx11::basic_string<char>::_Alloc_hider", i64, %union.anon }
%"struct.std::__cxx11::basic_string<char>::_Alloc_hider" = type { ptr }
%union.anon = type { i64, [8 x i8] }
%"class.std::vector" = type { %"struct.std::_Vector_base" }
%"struct.std::_Vector_base" = type { %"struct.std::_Vector_base<osgeo::proj::operation::GridDescription, std::allocator<osgeo::proj::operation::GridDescription>>::_Vector_impl" }
%"struct.std::_Vector_base<osgeo::proj::operation::GridDescription, std::allocator<osgeo::proj::operation::GridDescription>>::_Vector_impl" = type { %"struct.std::_Vector_base<osgeo::proj::operation::GridDescription, std::allocator<osgeo::proj::operation::GridDescription>>::_Vector_impl_data" }
%"struct.std::_Vector_base<osgeo::proj::operation::GridDescription, std::allocator<osgeo::proj::operation::GridDescription>>::_Vector_impl_data" = type { ptr, ptr, ptr }
%"class.std::vector.3" = type { %"struct.std::_Vector_base.4" }
%"struct.std::_Vector_base.4" = type { %"struct.std::_Vector_base<PJCoordOperation, std::allocator<PJCoordOperation>>::_Vector_impl" }
%"struct.std::_Vector_base<PJCoordOperation, std::allocator<PJCoordOperation>>::_Vector_impl" = type { %"struct.std::_Vector_base<PJCoordOperation, std::allocator<PJCoordOperation>>::_Vector_impl_data" }
%"struct.std::_Vector_base<PJCoordOperation, std::allocator<PJCoordOperation>>::_Vector_impl_data" = type { ptr, ptr, ptr }
%union.PROJVALUE = type { double }
%"struct.(anonymous namespace)::pj_stere" = type { double, double, double, double, i32 }

@.str.4 = private unnamed_addr constant [7 x i8] c"bsouth\00", align 1
@.str.5 = private unnamed_addr constant [61 x i8] c"Invalid value for es: only ellipsoidal formulation supported\00", align 1

; Function Attrs: mustprogress uwtable
define hidden noundef ptr @_Z32pj_projection_specific_setup_upsP8PJconsts(ptr noundef %0) #0 {
  %2 = alloca ptr, align 8
  %3 = alloca ptr, align 8
  %4 = alloca ptr, align 8
  %5 = alloca i32, align 4
  %6 = alloca %union.PROJVALUE, align 8
  store ptr %0, ptr %3, align 8, !tbaa !3
  call void @llvm.lifetime.start.p0(i64 8, ptr %4) #9
  %7 = call noalias ptr @calloc(i64 noundef 1, i64 noundef 40) #10
  store ptr %7, ptr %4, align 8, !tbaa !41
  %8 = load ptr, ptr %4, align 8, !tbaa !41
  %9 = icmp eq ptr null, %8
  br i1 %9, label %10, label %13

10:                                               ; preds = %1
  %11 = load ptr, ptr %3, align 8, !tbaa !3
  %12 = call noundef ptr @_Z21pj_default_destructorP8PJconstsi(ptr noundef %11, i32 noundef 4096)
  store ptr %12, ptr %2, align 8
  store i32 1, ptr %5, align 4
  br label %51

13:                                               ; preds = %1
  %14 = load ptr, ptr %4, align 8, !tbaa !41
  %15 = load ptr, ptr %3, align 8, !tbaa !3
  %16 = getelementptr inbounds nuw %struct.PJconsts, ptr %15, i32 0, i32 11
  store ptr %14, ptr %16, align 8, !tbaa !43
  call void @llvm.lifetime.start.p0(i64 8, ptr %6) #9
  %17 = load ptr, ptr %3, align 8, !tbaa !3
  %18 = getelementptr inbounds nuw %struct.PJconsts, ptr %17, i32 0, i32 0
  %19 = load ptr, ptr %18, align 8, !tbaa !44
  %20 = load ptr, ptr %3, align 8, !tbaa !3
  %21 = getelementptr inbounds nuw %struct.PJconsts, ptr %20, i32 0, i32 3
  %22 = load ptr, ptr %21, align 8, !tbaa !45
  %23 = call i64 @_Z8pj_paramP6pj_ctxP8ARG_listPKc(ptr noundef %19, ptr noundef %22, ptr noundef @.str.4)
  %24 = getelementptr inbounds nuw %union.PROJVALUE, ptr %6, i32 0, i32 0
  store i64 %23, ptr %24, align 8
  %25 = load i32, ptr %6, align 8, !tbaa !46
  %26 = icmp ne i32 %25, 0
  %27 = select i1 %26, double 0xBFF921FB54442D18, double 0x3FF921FB54442D18
  %28 = load ptr, ptr %3, align 8, !tbaa !3
  %29 = getelementptr inbounds nuw %struct.PJconsts, ptr %28, i32 0, i32 61
  store double %27, ptr %29, align 8, !tbaa !49
  call void @llvm.lifetime.end.p0(i64 8, ptr %6) #9
  %30 = load ptr, ptr %3, align 8, !tbaa !3
  %31 = getelementptr inbounds nuw %struct.PJconsts, ptr %30, i32 0, i32 27
  %32 = load double, ptr %31, align 8, !tbaa !52
  %33 = fcmp oeq double %32, 0.000000e+00
  br i1 %33, label %34, label %38

34:                                               ; preds = %13
  %35 = load ptr, ptr %3, align 8, !tbaa !3
  call void (ptr, ptr, ...) @_Z14proj_log_errorPK8PJconstsPKcz(ptr noundef %35, ptr noundef @.str.5)
  %36 = load ptr, ptr %3, align 8, !tbaa !3
  %37 = call noundef ptr @_Z21pj_default_destructorP8PJconstsi(ptr noundef %36, i32 noundef 1027)
  store ptr %37, ptr %2, align 8
  store i32 1, ptr %5, align 4
  br label %51

38:                                               ; preds = %13
  %39 = load ptr, ptr %3, align 8, !tbaa !3
  %40 = getelementptr inbounds nuw %struct.PJconsts, ptr %39, i32 0, i32 66
  store double 0x3FEFCED916872B02, ptr %40, align 8, !tbaa !53
  %41 = load ptr, ptr %3, align 8, !tbaa !3
  %42 = getelementptr inbounds nuw %struct.PJconsts, ptr %41, i32 0, i32 62
  store double 2.000000e+06, ptr %42, align 8, !tbaa !61
  %43 = load ptr, ptr %3, align 8, !tbaa !3
  %44 = getelementptr inbounds nuw %struct.PJconsts, ptr %43, i32 0, i32 63
  store double 2.000000e+06, ptr %44, align 8, !tbaa !62
  %45 = load ptr, ptr %4, align 8, !tbaa !41
  %46 = getelementptr inbounds nuw %"struct.(anonymous namespace)::pj_stere", ptr %45, i32 0, i32 0
  store double 0x3FF921FB54442D18, ptr %46, align 8, !tbaa !47
  %47 = load ptr, ptr %3, align 8, !tbaa !3
  %48 = getelementptr inbounds nuw %struct.PJconsts, ptr %47, i32 0, i32 60
  store double 0.000000e+00, ptr %48, align 8, !tbaa !63
  %49 = load ptr, ptr %3, align 8, !tbaa !3
  %50 = call noundef ptr @_ZL11stere_setupP8PJconsts(ptr noundef %49)
  store ptr %50, ptr %2, align 8
  store i32 1, ptr %5, align 4
  br label %51

51:                                               ; preds = %38, %34, %10
  call void @llvm.lifetime.end.p0(i64 8, ptr %4) #9
  %52 = load ptr, ptr %2, align 8
  ret ptr %52
}