; Function Attrs: mustprogress uwtable
define hidden noundef ptr @_Z32pj_projection_specific_setup_upsP8PJconsts(ptr noundef %0) local_unnamed_addr #0 {
  %2 = tail call noalias dereferenceable_or_null(40) ptr @calloc(i64 noundef 1, i64 noundef 40) #7
  %3 = icmp eq ptr %2, null
  br i1 %3, label %4, label %6

4:                                                ; preds = %1
  %5 = tail call noundef ptr @_Z21pj_default_destructorP8PJconstsi(ptr noundef %0, i32 noundef 4096)
  br label %26

6:                                                ; preds = %1
  %7 = getelementptr inbounds nuw i8, ptr %0, i64 88
  store ptr %2, ptr %7, align 8, !tbaa !3
  %8 = load ptr, ptr %0, align 8, !tbaa !36
  %9 = getelementptr inbounds nuw i8, ptr %0, i64 24
  %10 = load ptr, ptr %9, align 8, !tbaa !37
  %11 = tail call i64 @_Z8pj_paramP6pj_ctxP8ARG_listPKc(ptr noundef %8, ptr noundef %10, ptr noundef nonnull @.str.4)
  %12 = and i64 %11, 4294967295
  %.not = icmp eq i64 %12, 0
  %13 = select i1 %.not, double 0x3FF921FB54442D18, double 0xBFF921FB54442D18
  %14 = getelementptr inbounds nuw i8, ptr %0, i64 448
  store double %13, ptr %14, align 8, !tbaa !45
  %15 = getelementptr inbounds nuw i8, ptr %0, i64 216
  %16 = load double, ptr %15, align 8, !tbaa !47
  %17 = fcmp oeq double %16, 0.000000e+00
  br i1 %17, label %18, label %20

18:                                               ; preds = %6
  tail call void (ptr, ptr, ...) @_Z14proj_log_errorPK8PJconstsPKcz(ptr noundef nonnull %0, ptr noundef nonnull @.str.5)
  %19 = tail call noundef ptr @_Z21pj_default_destructorP8PJconstsi(ptr noundef nonnull %0, i32 noundef 1027)
  br label %26

20:                                               ; preds = %6
  %21 = getelementptr inbounds nuw i8, ptr %0, i64 488
  store double 0x3FEFCED916872B02, ptr %21, align 8, !tbaa !48
  %22 = getelementptr inbounds nuw i8, ptr %0, i64 456
  store double 2.000000e+06, ptr %22, align 8, !tbaa !56
  %23 = getelementptr inbounds nuw i8, ptr %0, i64 464
  store double 2.000000e+06, ptr %23, align 8, !tbaa !57
  store double 0x3FF921FB54442D18, ptr %2, align 8, !tbaa !38
  %24 = getelementptr inbounds nuw i8, ptr %0, i64 440
  store double 0.000000e+00, ptr %24, align 8, !tbaa !58
  %25 = tail call fastcc noundef ptr @_ZL11stere_setupP8PJconsts(ptr noundef nonnull %0)
  br label %26

26:                                               ; preds = %20, %18, %4
  %.0 = phi ptr [ %5, %4 ], [ %19, %18 ], [ %0, %20 ]
  ret ptr %.0
}